; Function Attrs: mustprogress nofree norecurse nosync nounwind willreturn memory(argmem: read) uwtable
define hidden noundef i32 @_ZNK19OpenColorIO_v2_4dev18NamedTransformImpl16getNumCategoriesEv(ptr nocapture noundef nonnull readonly align 8 dereferenceable(224) %this) unnamed_addr #7 align 2 {
entry:
  %m_tokens.i = getelementptr inbounds i8, ptr %this, i64 168
  %_M_finish.i.i = getelementptr inbounds i8, ptr %this, i64 176
  %0 = load ptr, ptr %_M_finish.i.i, align 8
  %1 = load ptr, ptr %m_tokens.i, align 8
  %sub.ptr.lhs.cast.i.i = ptrtoint ptr %0 to i64
  %sub.ptr.rhs.cast.i.i = ptrtoint ptr %1 to i64
  %sub.ptr.sub.i.i = sub i64 %sub.ptr.lhs.cast.i.i, %sub.ptr.rhs.cast.i.i
  %sub.ptr.div.i.i = lshr exact i64 %sub.ptr.sub.i.i, 5
  %conv.i = trunc i64 %sub.ptr.div.i.i to i32
  ret i32 %conv.i
}